target datalayout = "e-m:e-p270:32:32-p271:32:32-p272:64:64-i64:64-i128:128-f80:128-n8:16:32:64-S128"
target triple = "x86_64-pc-linux-gnu"

; Function Attrs: nounwind uwtable
define void @dt_copy_resource_file(ptr noundef %0, ptr noundef %1) #0 {
  %3 = alloca ptr, align 8
  %4 = alloca ptr, align 8
  %5 = alloca [4096 x i8], align 16
  %6 = alloca ptr, align 8
  store ptr %0, ptr %3, align 8, !tbaa !6
  store ptr %1, ptr %4, align 8, !tbaa !6
  call void @llvm.lifetime.start.p0(i64 4096, ptr %5) #18
  call void @llvm.memset.p0.i64(ptr align 16 %5, i8 0, i64 4096, i1 false)
  %7 = getelementptr inbounds [4096 x i8], ptr %5, i64 0, i64 0
  call void @dt_loc_get_datadir(ptr noundef %7, i64 noundef 4096)
  call void @llvm.lifetime.start.p0(i64 8, ptr %6) #18
  %8 = getelementptr inbounds [4096 x i8], ptr %5, i64 0, i64 0
  %9 = load ptr, ptr %3, align 8, !tbaa !6
  %10 = call noalias ptr (ptr, ...) @g_build_filename(ptr noundef %8, ptr noundef %9, ptr noundef null)
  store ptr %10, ptr %6, align 8, !tbaa !6
  %11 = load ptr, ptr %6, align 8, !tbaa !6
  %12 = load ptr, ptr %4, align 8, !tbaa !6
  call void @dt_copy_file(ptr noundef %11, ptr noundef %12)
  %13 = load ptr, ptr %6, align 8, !tbaa !6
  call void @g_free(ptr noundef %13)
  call void @llvm.lifetime.end.p0(i64 8, ptr %6) #18
  call void @llvm.lifetime.end.p0(i64 4096, ptr %5) #18
  ret void
}