; Function Attrs: nounwind uwtable
define void @dt_copy_resource_file(ptr noundef %0, ptr noundef %1) local_unnamed_addr #0 {
  %3 = alloca [4096 x i8], align 16
  call void @llvm.lifetime.start.p0(i64 4096, ptr nonnull %3) #27
  call void @llvm.memset.p0.i64(ptr noundef nonnull align 16 dereferenceable(4096) %3, i8 0, i64 4096, i1 false)
  call void @dt_loc_get_datadir(ptr noundef nonnull %3, i64 noundef 4096) #27
  %4 = call noalias ptr (ptr, ...) @g_build_filename(ptr noundef nonnull %3, ptr noundef %0, ptr noundef null) #27
  call void @dt_copy_file(ptr noundef %4, ptr noundef %1)
  call void @g_free(ptr noundef %4) #27
  call void @llvm.lifetime.end.p0(i64 4096, ptr nonnull %3) #27
  ret void
}